target datalayout = "e-m:e-p270:32:32-p271:32:32-p272:64:64-i64:64-i128:128-f80:128-n8:16:32:64-S128"
target triple = "x86_64-unknown-linux-gnu"

; Function Attrs: nounwind sspstrong uwtable
define dso_local i32 @bdrv_co_is_zero_fast(ptr noundef %bs, i64 noundef %offset, i64 noundef %bytes) #0 {
entry:
  %retval = alloca i32, align 4
  %bs.addr = alloca ptr, align 8
  %offset.addr = alloca i64, align 8
  %bytes.addr = alloca i64, align 8
  %ret = alloca i32, align 4
  %pnum = alloca i64, align 8
  store ptr %bs, ptr %bs.addr, align 8
  store i64 %offset, ptr %offset.addr, align 8
  store i64 %bytes, ptr %bytes.addr, align 8
  %0 = load i64, ptr %bytes.addr, align 8
  store i64 %0, ptr %pnum, align 8
  br label %do.body

do.body:                                          ; preds = %entry
  br label %do.end

do.end:                                           ; preds = %do.body
  %1 = load i64, ptr %bytes.addr, align 8
  %tobool = icmp ne i64 %1, 0
  br i1 %tobool, label %if.end, label %if.then

if.then:                                          ; preds = %do.end
  store i32 1, ptr %retval, align 4
  br label %return

if.end:                                           ; preds = %do.end
  %2 = load ptr, ptr %bs.addr, align 8
  %3 = load i64, ptr %offset.addr, align 8
  %4 = load i64, ptr %bytes.addr, align 8
  %call = call i32 @bdrv_co_common_block_status_above(ptr noundef %2, ptr noundef null, i1 noundef zeroext false, i1 noundef zeroext false, i64 noundef %3, i64 noundef %4, ptr noundef %pnum, ptr noundef null, ptr noundef null, ptr noundef null)
  store i32 %call, ptr %ret, align 4
  %5 = load i32, ptr %ret, align 4
  %cmp = icmp slt i32 %5, 0
  br i1 %cmp, label %if.then1, label %if.end2

if.then1:                                         ; preds = %if.end
  %6 = load i32, ptr %ret, align 4
  store i32 %6, ptr %retval, align 4
  br label %return

if.end2:                                          ; preds = %if.end
  %7 = load i64, ptr %pnum, align 8
  %8 = load i64, ptr %bytes.addr, align 8
  %cmp3 = icmp eq i64 %7, %8
  br i1 %cmp3, label %land.rhs, label %land.end

land.rhs:                                         ; preds = %if.end2
  %9 = load i32, ptr %ret, align 4
  %and = and i32 %9, 2
  %tobool4 = icmp ne i32 %and, 0
  br label %land.end

land.end:                                         ; preds = %land.rhs, %if.end2
  %10 = phi i1 [ false, %if.end2 ], [ %tobool4, %land.rhs ]
  %land.ext = zext i1 %10 to i32
  store i32 %land.ext, ptr %retval, align 4
  br label %return

return:                                           ; preds = %land.end, %if.then1, %if.then
  %11 = load i32, ptr %retval, align 4
  ret i32 %11
}