; Function Attrs: nounwind sspstrong uwtable
define dso_local range(i32 -2147483648, 2) i32 @bdrv_co_is_zero_fast(ptr noundef %bs, i64 noundef %offset, i64 noundef %bytes) #0 {
entry:
  %pnum = alloca i64, align 8
  store i64 %bytes, ptr %pnum, align 8
  %tobool.not = icmp eq i64 %bytes, 0
  br i1 %tobool.not, label %return, label %if.end

if.end:                                           ; preds = %entry
  %call = call i32 @bdrv_co_common_block_status_above(ptr noundef %bs, ptr noundef null, i1 noundef zeroext false, i1 noundef zeroext false, i64 noundef %offset, i64 noundef %bytes, ptr noundef nonnull %pnum, ptr noundef null, ptr noundef null, ptr noundef null)
  %cmp = icmp slt i32 %call, 0
  br i1 %cmp, label %return, label %if.end2

if.end2:                                          ; preds = %if.end
  %0 = load i64, ptr %pnum, align 8
  %cmp3 = icmp eq i64 %0, %bytes
  %and = and i32 %call, 2
  %tobool4 = icmp ne i32 %and, 0
  %1 = and i1 %tobool4, %cmp3
  %land.ext = zext i1 %1 to i32
  br label %return

return:                                           ; preds = %if.end, %entry, %if.end2
  %retval.0 = phi i32 [ %land.ext, %if.end2 ], [ 1, %entry ], [ %call, %if.end ]
  ret i32 %retval.0
}